target datalayout = "e-m:e-p270:32:32-p271:32:32-p272:64:64-i64:64-i128:128-f80:128-n8:16:32:64-S128"
target triple = "x86_64-pc-linux-gnu"

%struct.BuildTarget = type { i32, ptr, ptr, ptr, ptr, ptr, ptr, ptr, ptr, ptr, ptr, ptr, ptr, ptr, ptr, ptr, ptr, ptr, ptr, i8, i8, i8, i8, i8, i8, i8, i8, i8, i8, i8, i8, i8, i8, i8, i8, i8, i8, i8, i8, i32, i32, i32, i32, i32, i32, i32, i32, i32, i32, i32, i32, i32, i32, i32, i32, i32, i32, ptr, ptr, ptr, ptr, ptr, ptr, ptr, ptr, ptr, ptr, %struct.anon.85, %struct.anon.86, %struct.anon.87, %struct.anon.88 }
%struct.anon.85 = type { i16, i32, i32, i32 }
%struct.anon.86 = type { ptr, ptr, ptr, ptr }
%struct.anon.87 = type { ptr, ptr, i32, i8 }
%struct.anon.88 = type { ptr, ptr }

@active_target = dso_local global %struct.BuildTarget zeroinitializer, align 8
@.str.40 = private unnamed_addr constant [4 x i8] c".ll\00", align 1
@.str.41 = private unnamed_addr constant [3 x i8] c".s\00", align 1
@.str.42 = private unnamed_addr constant [5 x i8] c".obj\00", align 1
@.str.43 = private unnamed_addr constant [3 x i8] c".o\00", align 1

; Function Attrs: nounwind uwtable
define dso_local void @clean_obj_files() #0 {
  %1 = load ptr, ptr getelementptr inbounds (%struct.BuildTarget, ptr @active_target, i32 0, i32 16), align 8
  call void @file_delete_all_files_in_dir_with_suffix(ptr noundef %1, ptr noundef @.str.40)
  %2 = load ptr, ptr getelementptr inbounds (%struct.BuildTarget, ptr @active_target, i32 0, i32 17), align 8
  call void @file_delete_all_files_in_dir_with_suffix(ptr noundef %2, ptr noundef @.str.41)
  %3 = load ptr, ptr getelementptr inbounds (%struct.BuildTarget, ptr @active_target, i32 0, i32 14), align 8
  call void @file_delete_all_files_in_dir_with_suffix(ptr noundef %3, ptr noundef @.str.42)
  %4 = load ptr, ptr getelementptr inbounds (%struct.BuildTarget, ptr @active_target, i32 0, i32 14), align 8
  call void @file_delete_all_files_in_dir_with_suffix(ptr noundef %4, ptr noundef @.str.43)
  ret void
}

; Function Attrs: nounwind uwtable
define dso_local void @compile_clean(ptr noundef %0) #0 {
  %2 = alloca ptr, align 8
  store ptr %0, ptr %2, align 8
  %3 = load ptr, ptr %2, align 8
  call void @init_build_target(ptr noundef @active_target, ptr noundef %3)
  call void @clean_obj_files()
  ret void
}