; Function Attrs: nounwind uwtable
define dso_local void @compile_clean(ptr noundef %0) local_unnamed_addr #0 {
  tail call void @init_build_target(ptr noundef nonnull @active_target, ptr noundef %0) #20
  %2 = load ptr, ptr getelementptr inbounds (%struct.BuildTarget, ptr @active_target, i64 0, i32 16), align 8
  tail call void @file_delete_all_files_in_dir_with_suffix(ptr noundef %2, ptr noundef nonnull @.str.40) #20
  %3 = load ptr, ptr getelementptr inbounds (%struct.BuildTarget, ptr @active_target, i64 0, i32 17), align 8
  tail call void @file_delete_all_files_in_dir_with_suffix(ptr noundef %3, ptr noundef nonnull @.str.41) #20
  %4 = load ptr, ptr getelementptr inbounds (%struct.BuildTarget, ptr @active_target, i64 0, i32 14), align 8
  tail call void @file_delete_all_files_in_dir_with_suffix(ptr noundef %4, ptr noundef nonnull @.str.42) #20
  %5 = load ptr, ptr getelementptr inbounds (%struct.BuildTarget, ptr @active_target, i64 0, i32 14), align 8
  tail call void @file_delete_all_files_in_dir_with_suffix(ptr noundef %5, ptr noundef nonnull @.str.43) #20
  ret void
}